target datalayout = "e-m:e-p270:32:32-p271:32:32-p272:64:64-i64:64-i128:128-f80:128-n8:16:32:64-S128"
target triple = "x86_64-pc-linux-gnu"

%"class.std::ios_base" = type { ptr, i64, i64, i32, i32, i32, ptr, %"struct.std::ios_base::_Words", [8 x %"struct.std::ios_base::_Words"], i32, ptr, %"class.std::locale" }
%"struct.std::ios_base::_Words" = type { ptr, i64 }
%"class.std::locale" = type { ptr }

@.str.533 = private unnamed_addr constant [22 x i8] c" (no terminating NUL)\00", align 1

; Function Attrs: inlinehint mustprogress nounwind uwtable
define linkonce_odr dso_local noundef i32 @_ZStorSt12_Ios_IostateS_(i32 noundef %0, i32 noundef %1) #5 comdat {
  %3 = alloca i32, align 4
  %4 = alloca i32, align 4
  store i32 %0, ptr %3, align 4, !tbaa !1539
  store i32 %1, ptr %4, align 4, !tbaa !1539
  %5 = load i32, ptr %3, align 4, !tbaa !1539
  %6 = load i32, ptr %4, align 4, !tbaa !1539
  %7 = or i32 %5, %6
  ret i32 %7
}

; Function Attrs: mustprogress nounwind uwtable
define available_externally noundef i32 @_ZNKSt9basic_iosIcSt11char_traitsIcEE7rdstateEv(ptr noundef nonnull align 8 dereferenceable(264) %0) #7 align 2 {
  %2 = alloca ptr, align 8
  store ptr %0, ptr %2, align 8, !tbaa !1537
  %3 = load ptr, ptr %2, align 8
  %4 = getelementptr inbounds nuw %"class.std::ios_base", ptr %3, i32 0, i32 5
  %5 = load i32, ptr %4, align 8, !tbaa !1540
  ret i32 %5
}

; Function Attrs: mustprogress nounwind uwtable
define linkonce_odr dso_local noundef i64 @_ZNSt11char_traitsIcE6lengthEPKc(ptr noundef %0) #7 comdat align 2 {
  %2 = alloca ptr, align 8
  store ptr %0, ptr %2, align 8, !tbaa !32
  %3 = load ptr, ptr %2, align 8, !tbaa !32
  %4 = call i64 @strlen(ptr noundef %3) #3
  ret i64 %4
}

; Function Attrs: mustprogress uwtable
define available_externally void @_ZNSt9basic_iosIcSt11char_traitsIcEE8setstateESt12_Ios_Iostate(ptr noundef nonnull align 8 dereferenceable(264) %0, i32 noundef %1) #4 align 2 {
  %3 = alloca ptr, align 8
  %4 = alloca i32, align 4
  store ptr %0, ptr %3, align 8, !tbaa !1537
  store i32 %1, ptr %4, align 4, !tbaa !1539
  %5 = load ptr, ptr %3, align 8
  %6 = call noundef i32 @_ZNKSt9basic_iosIcSt11char_traitsIcEE7rdstateEv(ptr noundef nonnull align 8 dereferenceable(264) %5)
  %7 = load i32, ptr %4, align 4, !tbaa !1539
  %8 = call noundef i32 @_ZStorSt12_Ios_IostateS_(i32 noundef %6, i32 noundef %7)
  call void @_ZNSt9basic_iosIcSt11char_traitsIcEE5clearESt12_Ios_Iostate(ptr noundef nonnull align 8 dereferenceable(264) %5, i32 noundef %8)
  ret void
}

; Function Attrs: inlinehint mustprogress uwtable
define available_externally noundef nonnull align 8 dereferenceable(8) ptr @_ZStlsISt11char_traitsIcEERSt13basic_ostreamIcT_ES5_PKc(ptr noundef nonnull align 8 dereferenceable(8) %0, ptr noundef %1) #11 {
  %3 = alloca ptr, align 8
  %4 = alloca ptr, align 8
  store ptr %0, ptr %3, align 8, !tbaa !187
  store ptr %1, ptr %4, align 8, !tbaa !32
  %5 = load ptr, ptr %4, align 8, !tbaa !32
  %6 = icmp ne ptr %5, null
  br i1 %6, label %13, label %7

7:                                                ; preds = %2
  %8 = load ptr, ptr %3, align 8, !tbaa !187
  %9 = load ptr, ptr %8, align 8, !tbaa !50
  %10 = getelementptr i8, ptr %9, i64 -24
  %11 = load i64, ptr %10, align 8
  %12 = getelementptr inbounds i8, ptr %8, i64 %11
  call void @_ZNSt9basic_iosIcSt11char_traitsIcEE8setstateESt12_Ios_Iostate(ptr noundef nonnull align 8 dereferenceable(264) %12, i32 noundef 1)
  br label %19

13:                                               ; preds = %2
  %14 = load ptr, ptr %3, align 8, !tbaa !187
  %15 = load ptr, ptr %4, align 8, !tbaa !32
  %16 = load ptr, ptr %4, align 8, !tbaa !32
  %17 = call noundef i64 @_ZNSt11char_traitsIcE6lengthEPKc(ptr noundef %16)
  %18 = call noundef nonnull align 8 dereferenceable(8) ptr @_ZSt16__ostream_insertIcSt11char_traitsIcEERSt13basic_ostreamIT_T0_ES6_PKS3_l(ptr noundef nonnull align 8 dereferenceable(8) %14, ptr noundef %15, i64 noundef %17)
  br label %19

19:                                               ; preds = %13, %7
  %20 = load ptr, ptr %3, align 8, !tbaa !187
  ret ptr %20
}

; Function Attrs: mustprogress uwtable
define internal void @_ZN7testing8internalL23UniversalPrintCharArrayIDsEEvPKT_mPSo(ptr noundef %0, i64 noundef %1, ptr noundef %2) #4 {
  %4 = alloca ptr, align 8
  %5 = alloca i64, align 8
  %6 = alloca ptr, align 8
  store ptr %0, ptr %4, align 8, !tbaa !364
  store i64 %1, ptr %5, align 8, !tbaa !191
  store ptr %2, ptr %6, align 8, !tbaa !187
  %7 = load i64, ptr %5, align 8, !tbaa !191
  %8 = icmp ugt i64 %7, 0
  br i1 %8, label %9, label %23

9:                                                ; preds = %3
  %10 = load ptr, ptr %4, align 8, !tbaa !364
  %11 = load i64, ptr %5, align 8, !tbaa !191
  %12 = sub i64 %11, 1
  %13 = getelementptr inbounds nuw i16, ptr %10, i64 %12
  %14 = load i16, ptr %13, align 2, !tbaa !366
  %15 = zext i16 %14 to i32
  %16 = icmp eq i32 %15, 0
  br i1 %16, label %17, label %23

17:                                               ; preds = %9
  %18 = load ptr, ptr %4, align 8, !tbaa !364
  %19 = load i64, ptr %5, align 8, !tbaa !191
  %20 = sub i64 %19, 1
  %21 = load ptr, ptr %6, align 8, !tbaa !187
  %22 = call noundef i32 @_ZN7testing8internalL20PrintCharsAsStringToIDsEENS0_10CharFormatEPKT_mPSo(ptr noundef %18, i64 noundef %20, ptr noundef %21)
  br label %30

23:                                               ; preds = %9, %3
  %24 = load ptr, ptr %4, align 8, !tbaa !364
  %25 = load i64, ptr %5, align 8, !tbaa !191
  %26 = load ptr, ptr %6, align 8, !tbaa !187
  %27 = call noundef i32 @_ZN7testing8internalL20PrintCharsAsStringToIDsEENS0_10CharFormatEPKT_mPSo(ptr noundef %24, i64 noundef %25, ptr noundef %26)
  %28 = load ptr, ptr %6, align 8, !tbaa !187
  %29 = call noundef nonnull align 8 dereferenceable(8) ptr @_ZStlsISt11char_traitsIcEERSt13basic_ostreamIcT_ES5_PKc(ptr noundef nonnull align 8 dereferenceable(8) %28, ptr noundef @.str.533)
  br label %30

30:                                               ; preds = %23, %17
  ret void
}

; Function Attrs: mustprogress uwtable
define dso_local void @_ZN7testing8internal19UniversalPrintArrayEPKDsmPSo(ptr noundef %0, i64 noundef %1, ptr noundef %2) #4 {
  %4 = alloca ptr, align 8
  %5 = alloca i64, align 8
  %6 = alloca ptr, align 8
  store ptr %0, ptr %4, align 8, !tbaa !364
  store i64 %1, ptr %5, align 8, !tbaa !191
  store ptr %2, ptr %6, align 8, !tbaa !187
  %7 = load ptr, ptr %4, align 8, !tbaa !364
  %8 = load i64, ptr %5, align 8, !tbaa !191
  %9 = load ptr, ptr %6, align 8, !tbaa !187
  call void @_ZN7testing8internalL23UniversalPrintCharArrayIDsEEvPKT_mPSo(ptr noundef %7, i64 noundef %8, ptr noundef %9)
  ret void
}